target datalayout = "e-m:e-p270:32:32-p271:32:32-p272:64:64-i64:64-i128:128-f80:128-n8:16:32:64-S128"
target triple = "x86_64-pc-linux-gnu"

%struct.rtps_psk_options_entry_t = type { ptr, ptr, %struct.rtps_psk_options_entry_uint32_string_t, ptr, %struct.rtps_psk_options_entry_uint32_string_t, ptr, %struct.rtps_psk_options_entry_uint32_string_t, ptr, %struct.rtps_psk_options_entry_uint32_string_t }
%struct.rtps_psk_options_entry_uint32_string_t = type { i32, i8 }

@.str.771 = private unnamed_addr constant [14 x i8] c"Passphrase Id\00", align 1
@.str.791 = private unnamed_addr constant [12 x i8] c"Instance Id\00", align 1
@.str.1807 = private unnamed_addr constant [45 x i8] c"The 'Passphrase Secret' field can't be empty\00", align 1
@.str.1808 = private unnamed_addr constant [98 x i8] c"The 'Passphrase Secret' field has %zu characters length. It cannot be larger than %zu characters.\00", align 1
@.str.1809 = private unnamed_addr constant [8 x i8] c"Host Id\00", align 1
@.str.1810 = private unnamed_addr constant [7 x i8] c"App Id\00", align 1
@.str.1811 = private unnamed_addr constant [79 x i8] c"The '%s'  field must be either the '*' wildcard character, or a valid integer.\00", align 1

; Function Attrs: null_pointer_is_valid sspstrong uwtable
define internal zeroext i1 @rtps_psk_options_entry_uint32_string_validate(ptr noundef %0, ptr noundef %1, ptr noundef %2, ptr noundef %3) #0 {
  %5 = alloca i1, align 1
  %6 = alloca ptr, align 8
  %7 = alloca ptr, align 8
  %8 = alloca ptr, align 8
  %9 = alloca ptr, align 8
  store ptr %0, ptr %6, align 8
  store ptr %1, ptr %7, align 8
  store ptr %2, ptr %8, align 8
  store ptr %3, ptr %9, align 8
  %10 = load ptr, ptr %8, align 8
  %11 = icmp eq ptr %10, null
  br i1 %11, label %22, label %12

12:                                               ; preds = %4
  %13 = load ptr, ptr %8, align 8
  %14 = call i64 @strlen(ptr noundef %13) #15
  %15 = icmp eq i64 %14, 0
  br i1 %15, label %22, label %16

16:                                               ; preds = %12
  %17 = load ptr, ptr %8, align 8
  %18 = getelementptr i8, ptr %17, i64 0
  %19 = load i8, ptr %18, align 1
  %20 = sext i8 %19 to i32
  %21 = icmp eq i32 %20, 42
  br i1 %21, label %22, label %25

22:                                               ; preds = %16, %12, %4
  %23 = load ptr, ptr %7, align 8
  %24 = getelementptr inbounds nuw %struct.rtps_psk_options_entry_uint32_string_t, ptr %23, i32 0, i32 1
  store i8 1, ptr %24, align 4
  br label %35

25:                                               ; preds = %16
  %26 = load ptr, ptr %8, align 8
  %27 = load ptr, ptr %7, align 8
  %28 = getelementptr inbounds nuw %struct.rtps_psk_options_entry_uint32_string_t, ptr %27, i32 0, i32 0
  %29 = call zeroext i1 @ws_strtou32(ptr noundef %26, ptr noundef null, ptr noundef %28)
  br i1 %29, label %34, label %30

30:                                               ; preds = %25
  %31 = load ptr, ptr %9, align 8
  %32 = call noalias ptr (ptr, ...) @g_strdup_printf(ptr noundef @.str.1811, ptr noundef %31)
  %33 = load ptr, ptr %6, align 8
  store ptr %32, ptr %33, align 8
  store i1 false, ptr %5, align 1
  br label %36

34:                                               ; preds = %25
  br label %35

35:                                               ; preds = %34, %22
  store i1 true, ptr %5, align 1
  br label %36

36:                                               ; preds = %35, %30
  %37 = load i1, ptr %5, align 1
  ret i1 %37
}

; Function Attrs: null_pointer_is_valid sspstrong uwtable
define internal zeroext i1 @rtps_psk_options_update_entry(ptr noundef %0, ptr noundef %1) #0 {
  %3 = alloca i1, align 1
  %4 = alloca ptr, align 8
  %5 = alloca ptr, align 8
  %6 = alloca i64, align 8
  %7 = alloca ptr, align 8
  %8 = alloca i64, align 8
  %9 = alloca i32, align 4
  store ptr %0, ptr %4, align 8
  store ptr %1, ptr %5, align 8
  call void @llvm.lifetime.start.p0(i64 8, ptr %6) #14
  store i64 512, ptr %6, align 8
  call void @llvm.lifetime.start.p0(i64 8, ptr %7) #14
  %10 = load ptr, ptr %4, align 8
  store ptr %10, ptr %7, align 8
  call void @llvm.lifetime.start.p0(i64 8, ptr %8) #14
  store i64 0, ptr %8, align 8
  %11 = load ptr, ptr %5, align 8
  %12 = load ptr, ptr %7, align 8
  %13 = getelementptr inbounds nuw %struct.rtps_psk_options_entry_t, ptr %12, i32 0, i32 2
  %14 = load ptr, ptr %7, align 8
  %15 = getelementptr inbounds nuw %struct.rtps_psk_options_entry_t, ptr %14, i32 0, i32 1
  %16 = load ptr, ptr %15, align 8
  %17 = call zeroext i1 @rtps_psk_options_entry_uint32_string_validate(ptr noundef %11, ptr noundef %13, ptr noundef %16, ptr noundef @.str.771)
  br i1 %17, label %19, label %18

18:                                               ; preds = %2
  store i1 false, ptr %3, align 1
  store i32 1, ptr %9, align 4
  br label %81

19:                                               ; preds = %2
  %20 = load ptr, ptr %7, align 8
  %21 = getelementptr inbounds nuw %struct.rtps_psk_options_entry_t, ptr %20, i32 0, i32 0
  %22 = load ptr, ptr %21, align 8
  %23 = icmp eq ptr %22, null
  br i1 %23, label %24, label %27

24:                                               ; preds = %19
  %25 = call noalias ptr @g_strdup(ptr noundef @.str.1807)
  %26 = load ptr, ptr %5, align 8
  store ptr %25, ptr %26, align 8
  store i1 false, ptr %3, align 1
  store i32 1, ptr %9, align 4
  br label %81

27:                                               ; preds = %19
  %28 = load ptr, ptr %7, align 8
  %29 = getelementptr inbounds nuw %struct.rtps_psk_options_entry_t, ptr %28, i32 0, i32 0
  %30 = load ptr, ptr %29, align 8
  %31 = call ptr @g_strchug(ptr noundef %30)
  %32 = call ptr @g_strchomp(ptr noundef %31)
  %33 = load ptr, ptr %7, align 8
  %34 = getelementptr inbounds nuw %struct.rtps_psk_options_entry_t, ptr %33, i32 0, i32 0
  %35 = load ptr, ptr %34, align 8
  %36 = call i64 @strlen(ptr noundef %35) #15
  store i64 %36, ptr %8, align 8
  %37 = load i64, ptr %8, align 8
  %38 = icmp eq i64 %37, 0
  br i1 %38, label %39, label %42

39:                                               ; preds = %27
  %40 = call noalias ptr @g_strdup(ptr noundef @.str.1807)
  %41 = load ptr, ptr %5, align 8
  store ptr %40, ptr %41, align 8
  store i1 false, ptr %3, align 1
  store i32 1, ptr %9, align 4
  br label %81

42:                                               ; preds = %27
  %43 = load i64, ptr %8, align 8
  %44 = load i64, ptr %6, align 8
  %45 = sub i64 %44, 1
  %46 = icmp ugt i64 %43, %45
  br i1 %46, label %47, label %53

47:                                               ; preds = %42
  %48 = load i64, ptr %8, align 8
  %49 = load i64, ptr %6, align 8
  %50 = sub i64 %49, 1
  %51 = call noalias ptr (ptr, ...) @g_strdup_printf(ptr noundef @.str.1808, i64 noundef %48, i64 noundef %50)
  %52 = load ptr, ptr %5, align 8
  store ptr %51, ptr %52, align 8
  store i1 false, ptr %3, align 1
  store i32 1, ptr %9, align 4
  br label %81

53:                                               ; preds = %42
  %54 = load ptr, ptr %5, align 8
  %55 = load ptr, ptr %7, align 8
  %56 = getelementptr inbounds nuw %struct.rtps_psk_options_entry_t, ptr %55, i32 0, i32 4
  %57 = load ptr, ptr %7, align 8
  %58 = getelementptr inbounds nuw %struct.rtps_psk_options_entry_t, ptr %57, i32 0, i32 3
  %59 = load ptr, ptr %58, align 8
  %60 = call zeroext i1 @rtps_psk_options_entry_uint32_string_validate(ptr noundef %54, ptr noundef %56, ptr noundef %59, ptr noundef @.str.1809)
  br i1 %60, label %62, label %61

61:                                               ; preds = %53
  store i1 false, ptr %3, align 1
  store i32 1, ptr %9, align 4
  br label %81

62:                                               ; preds = %53
  %63 = load ptr, ptr %5, align 8
  %64 = load ptr, ptr %7, align 8
  %65 = getelementptr inbounds nuw %struct.rtps_psk_options_entry_t, ptr %64, i32 0, i32 6
  %66 = load ptr, ptr %7, align 8
  %67 = getelementptr inbounds nuw %struct.rtps_psk_options_entry_t, ptr %66, i32 0, i32 5
  %68 = load ptr, ptr %67, align 8
  %69 = call zeroext i1 @rtps_psk_options_entry_uint32_string_validate(ptr noundef %63, ptr noundef %65, ptr noundef %68, ptr noundef @.str.1810)
  br i1 %69, label %71, label %70

70:                                               ; preds = %62
  store i1 false, ptr %3, align 1
  store i32 1, ptr %9, align 4
  br label %81

71:                                               ; preds = %62
  %72 = load ptr, ptr %5, align 8
  %73 = load ptr, ptr %7, align 8
  %74 = getelementptr inbounds nuw %struct.rtps_psk_options_entry_t, ptr %73, i32 0, i32 8
  %75 = load ptr, ptr %7, align 8
  %76 = getelementptr inbounds nuw %struct.rtps_psk_options_entry_t, ptr %75, i32 0, i32 7
  %77 = load ptr, ptr %76, align 8
  %78 = call zeroext i1 @rtps_psk_options_entry_uint32_string_validate(ptr noundef %72, ptr noundef %74, ptr noundef %77, ptr noundef @.str.791)
  br i1 %78, label %80, label %79

79:                                               ; preds = %71
  store i1 false, ptr %3, align 1
  store i32 1, ptr %9, align 4
  br label %81

80:                                               ; preds = %71
  store i1 true, ptr %3, align 1
  store i32 1, ptr %9, align 4
  br label %81

81:                                               ; preds = %80, %79, %70, %61, %47, %39, %24, %18
  call void @llvm.lifetime.end.p0(i64 8, ptr %8) #14
  call void @llvm.lifetime.end.p0(i64 8, ptr %7) #14
  call void @llvm.lifetime.end.p0(i64 8, ptr %6) #14
  %82 = load i1, ptr %3, align 1
  ret i1 %82
}