; Function Attrs: null_pointer_is_valid sspstrong uwtable
define internal noundef zeroext i1 @rtps_psk_options_update_entry(ptr noundef %0, ptr noundef writeonly captures(none) %1) #0 {
  %3 = getelementptr inbounds nuw i8, ptr %0, i64 16
  %4 = getelementptr inbounds nuw i8, ptr %0, i64 8
  %5 = load ptr, ptr %4, align 8
  %6 = icmp eq ptr %5, null
  br i1 %6, label %8, label %7

7:                                                ; preds = %2
  %char0.i = load i8, ptr %5, align 1
  switch i8 %char0.i, label %10 [
    i8 0, label %8
    i8 42, label %8
  ]

8:                                                ; preds = %7, %7, %2
  %9 = getelementptr inbounds nuw i8, ptr %0, i64 20
  store i8 1, ptr %9, align 4
  br label %13

10:                                               ; preds = %7
  %11 = tail call zeroext i1 @ws_strtou32(ptr noundef nonnull %5, ptr noundef null, ptr noundef nonnull %3)
  br i1 %11, label %13, label %rtps_psk_options_entry_uint32_string_validate.exit

rtps_psk_options_entry_uint32_string_validate.exit: ; preds = %10
  %12 = tail call noalias ptr (ptr, ...) @g_strdup_printf(ptr noundef nonnull @.str.1811, ptr noundef nonnull @.str.771)
  store ptr %12, ptr %1, align 8
  br label %rtps_psk_options_entry_uint32_string_validate.exit34

13:                                               ; preds = %10, %8
  %14 = load ptr, ptr %0, align 8
  %15 = icmp eq ptr %14, null
  br i1 %15, label %16, label %18

16:                                               ; preds = %13
  %17 = tail call noalias ptr @g_strdup(ptr noundef nonnull @.str.1807)
  store ptr %17, ptr %1, align 8
  br label %rtps_psk_options_entry_uint32_string_validate.exit34

18:                                               ; preds = %13
  %19 = tail call ptr @g_strchug(ptr noundef nonnull %14)
  %20 = tail call ptr @g_strchomp(ptr noundef %19)
  %21 = load ptr, ptr %0, align 8
  %22 = tail call i64 @strlen(ptr noundef %21) #19
  %23 = icmp eq i64 %22, 0
  br i1 %23, label %24, label %26

24:                                               ; preds = %18
  %25 = tail call noalias ptr @g_strdup(ptr noundef nonnull @.str.1807)
  store ptr %25, ptr %1, align 8
  br label %rtps_psk_options_entry_uint32_string_validate.exit34

26:                                               ; preds = %18
  %27 = icmp ugt i64 %22, 511
  br i1 %27, label %28, label %30

28:                                               ; preds = %26
  %29 = tail call noalias ptr (ptr, ...) @g_strdup_printf(ptr noundef nonnull @.str.1808, i64 noundef %22, i64 noundef 511)
  store ptr %29, ptr %1, align 8
  br label %rtps_psk_options_entry_uint32_string_validate.exit34

30:                                               ; preds = %26
  %31 = getelementptr inbounds nuw i8, ptr %0, i64 32
  %32 = getelementptr inbounds nuw i8, ptr %0, i64 24
  %33 = load ptr, ptr %32, align 8
  %34 = icmp eq ptr %33, null
  br i1 %34, label %36, label %35

35:                                               ; preds = %30
  %char0.i26 = load i8, ptr %33, align 1
  switch i8 %char0.i26, label %38 [
    i8 0, label %36
    i8 42, label %36
  ]

36:                                               ; preds = %35, %35, %30
  %37 = getelementptr inbounds nuw i8, ptr %0, i64 36
  store i8 1, ptr %37, align 4
  br label %41

38:                                               ; preds = %35
  %39 = tail call zeroext i1 @ws_strtou32(ptr noundef nonnull %33, ptr noundef null, ptr noundef nonnull %31)
  br i1 %39, label %41, label %rtps_psk_options_entry_uint32_string_validate.exit28

rtps_psk_options_entry_uint32_string_validate.exit28: ; preds = %38
  %40 = tail call noalias ptr (ptr, ...) @g_strdup_printf(ptr noundef nonnull @.str.1811, ptr noundef nonnull @.str.1809)
  store ptr %40, ptr %1, align 8
  br label %rtps_psk_options_entry_uint32_string_validate.exit34

41:                                               ; preds = %38, %36
  %42 = getelementptr inbounds nuw i8, ptr %0, i64 48
  %43 = getelementptr inbounds nuw i8, ptr %0, i64 40
  %44 = load ptr, ptr %43, align 8
  %45 = icmp eq ptr %44, null
  br i1 %45, label %47, label %46

46:                                               ; preds = %41
  %char0.i29 = load i8, ptr %44, align 1
  switch i8 %char0.i29, label %49 [
    i8 0, label %47
    i8 42, label %47
  ]

47:                                               ; preds = %46, %46, %41
  %48 = getelementptr inbounds nuw i8, ptr %0, i64 52
  store i8 1, ptr %48, align 4
  br label %52

49:                                               ; preds = %46
  %50 = tail call zeroext i1 @ws_strtou32(ptr noundef nonnull %44, ptr noundef null, ptr noundef nonnull %42)
  br i1 %50, label %52, label %rtps_psk_options_entry_uint32_string_validate.exit31

rtps_psk_options_entry_uint32_string_validate.exit31: ; preds = %49
  %51 = tail call noalias ptr (ptr, ...) @g_strdup_printf(ptr noundef nonnull @.str.1811, ptr noundef nonnull @.str.1810)
  store ptr %51, ptr %1, align 8
  br label %rtps_psk_options_entry_uint32_string_validate.exit34

52:                                               ; preds = %49, %47
  %53 = getelementptr inbounds nuw i8, ptr %0, i64 64
  %54 = getelementptr inbounds nuw i8, ptr %0, i64 56
  %55 = load ptr, ptr %54, align 8
  %56 = icmp eq ptr %55, null
  br i1 %56, label %58, label %57

57:                                               ; preds = %52
  %char0.i32 = load i8, ptr %55, align 1
  switch i8 %char0.i32, label %60 [
    i8 0, label %58
    i8 42, label %58
  ]

58:                                               ; preds = %57, %57, %52
  %59 = getelementptr inbounds nuw i8, ptr %0, i64 68
  store i8 1, ptr %59, align 4
  br label %rtps_psk_options_entry_uint32_string_validate.exit34

60:                                               ; preds = %57
  %61 = tail call zeroext i1 @ws_strtou32(ptr noundef nonnull %55, ptr noundef null, ptr noundef nonnull %53)
  br i1 %61, label %rtps_psk_options_entry_uint32_string_validate.exit34, label %62

62:                                               ; preds = %60
  %63 = tail call noalias ptr (ptr, ...) @g_strdup_printf(ptr noundef nonnull @.str.1811, ptr noundef nonnull @.str.791)
  store ptr %63, ptr %1, align 8
  br label %rtps_psk_options_entry_uint32_string_validate.exit34

rtps_psk_options_entry_uint32_string_validate.exit34: ; preds = %62, %60, %58, %rtps_psk_options_entry_uint32_string_validate.exit31, %rtps_psk_options_entry_uint32_string_validate.exit28, %rtps_psk_options_entry_uint32_string_validate.exit, %28, %24, %16
  %.0 = phi i1 [ false, %16 ], [ false, %24 ], [ false, %28 ], [ false, %rtps_psk_options_entry_uint32_string_validate.exit ], [ false, %rtps_psk_options_entry_uint32_string_validate.exit28 ], [ false, %rtps_psk_options_entry_uint32_string_validate.exit31 ], [ false, %62 ], [ true, %60 ], [ true, %58 ]
  ret i1 %.0
}